; Function Attrs: mustprogress nounwind uwtable
define dso_local void @_ZN4node9inspector13SocketSession4SendERKNSt7__cxx1112basic_stringIcSt11char_traitsIcESaIcEEE(ptr nocapture noundef nonnull readonly align 8 dereferenceable(20) %this, ptr noundef nonnull align 8 dereferenceable(32) %message) local_unnamed_addr #0 align 2 {
entry:
  %ws_socket_ = getelementptr inbounds i8, ptr %this, i64 8
  %0 = load ptr, ptr %ws_socket_, align 8
  %call2 = tail call noundef ptr @_ZNKSt7__cxx1112basic_stringIcSt11char_traitsIcESaIcEE4dataEv(ptr noundef nonnull align 8 dereferenceable(32) %message) #19
  %call3 = tail call noundef i64 @_ZNKSt7__cxx1112basic_stringIcSt11char_traitsIcESaIcEE6lengthEv(ptr noundef nonnull align 8 dereferenceable(32) %message) #19
  tail call void @_ZN4node9inspector15InspectorSocket5WriteEPKcm(ptr noundef nonnull align 8 dereferenceable(8) %0, ptr noundef %call2, i64 noundef %call3) #19
  ret void
}